target datalayout = "e-m:e-p270:32:32-p271:32:32-p272:64:64-i64:64-i128:128-f80:128-n8:16:32:64-S128"
target triple = "x86_64-pc-linux-gnu"

%struct.cavs_vector = type { i16, i16, i16, i16 }
%struct.AVSContext = type { ptr, %struct.BlockDSPContext, %struct.H264ChromaContext, %struct.VideoDSPContext, %struct.CAVSDSPContext, %struct.GetBitContext, %struct.AVSFrame, [2 x %struct.AVSFrame], [2 x i32], i32, i32, i32, i32, i32, i32, i32, i32, i32, i32, i32, i32, i32, i32, i32, i32, i32, i32, i32, i32, i32, ptr, ptr, ptr, i32, ptr, [24 x %struct.cavs_vector], [2 x ptr], ptr, [9 x i32], ptr, i64, i64, [4 x i32], i32, i32, i32, i32, [64 x i8], ptr, ptr, ptr, [26 x i8], [10 x i8], [10 x i8], [26 x i8], i8, i8, i8, [8 x ptr], [7 x ptr], ptr, i32, [2 x i32], [2 x i32], ptr, i32, ptr }
%struct.BlockDSPContext = type { ptr, ptr, [2 x ptr] }
%struct.H264ChromaContext = type { [4 x ptr], [4 x ptr] }
%struct.VideoDSPContext = type { ptr, ptr }
%struct.CAVSDSPContext = type { [2 x [16 x ptr]], [2 x [16 x ptr]], ptr, ptr, ptr, ptr, ptr, i32 }
%struct.GetBitContext = type { ptr, ptr, i32, i32, i32 }
%struct.AVSFrame = type { ptr, i32 }

; Function Attrs: nounwind uwtable
define i32 @ff_cavs_init_top_lines(ptr noundef %0) #0 {
  %2 = alloca i32, align 4
  %3 = alloca ptr, align 8
  store ptr %0, ptr %3, align 8, !tbaa !4
  %4 = load ptr, ptr %3, align 8, !tbaa !4
  %5 = getelementptr inbounds nuw %struct.AVSContext, ptr %4, i32 0, i32 13
  %6 = load i32, ptr %5, align 8, !tbaa !80
  %7 = sext i32 %6 to i64
  %8 = call noalias ptr @av_mallocz(i64 noundef %7)
  %9 = load ptr, ptr %3, align 8, !tbaa !4
  %10 = getelementptr inbounds nuw %struct.AVSContext, ptr %9, i32 0, i32 34
  store ptr %8, ptr %10, align 8, !tbaa !49
  %11 = load ptr, ptr %3, align 8, !tbaa !4
  %12 = getelementptr inbounds nuw %struct.AVSContext, ptr %11, i32 0, i32 13
  %13 = load i32, ptr %12, align 8, !tbaa !80
  %14 = mul nsw i32 %13, 2
  %15 = add nsw i32 %14, 1
  %16 = sext i32 %15 to i64
  %17 = call noalias ptr @av_calloc(i64 noundef %16, i64 noundef 8)
  %18 = load ptr, ptr %3, align 8, !tbaa !4
  %19 = getelementptr inbounds nuw %struct.AVSContext, ptr %18, i32 0, i32 36
  %20 = getelementptr inbounds [2 x ptr], ptr %19, i64 0, i64 0
  store ptr %17, ptr %20, align 8, !tbaa !51
  %21 = load ptr, ptr %3, align 8, !tbaa !4
  %22 = getelementptr inbounds nuw %struct.AVSContext, ptr %21, i32 0, i32 13
  %23 = load i32, ptr %22, align 8, !tbaa !80
  %24 = mul nsw i32 %23, 2
  %25 = add nsw i32 %24, 1
  %26 = sext i32 %25 to i64
  %27 = call noalias ptr @av_calloc(i64 noundef %26, i64 noundef 8)
  %28 = load ptr, ptr %3, align 8, !tbaa !4
  %29 = getelementptr inbounds nuw %struct.AVSContext, ptr %28, i32 0, i32 36
  %30 = getelementptr inbounds [2 x ptr], ptr %29, i64 0, i64 1
  store ptr %27, ptr %30, align 8, !tbaa !51
  %31 = load ptr, ptr %3, align 8, !tbaa !4
  %32 = getelementptr inbounds nuw %struct.AVSContext, ptr %31, i32 0, i32 13
  %33 = load i32, ptr %32, align 8, !tbaa !80
  %34 = mul nsw i32 %33, 2
  %35 = sext i32 %34 to i64
  %36 = call noalias ptr @av_calloc(i64 noundef %35, i64 noundef 4)
  %37 = load ptr, ptr %3, align 8, !tbaa !4
  %38 = getelementptr inbounds nuw %struct.AVSContext, ptr %37, i32 0, i32 39
  store ptr %36, ptr %38, align 8, !tbaa !64
  %39 = load ptr, ptr %3, align 8, !tbaa !4
  %40 = getelementptr inbounds nuw %struct.AVSContext, ptr %39, i32 0, i32 13
  %41 = load i32, ptr %40, align 8, !tbaa !80
  %42 = add nsw i32 %41, 1
  %43 = sext i32 %42 to i64
  %44 = call noalias ptr @av_calloc(i64 noundef %43, i64 noundef 16)
  %45 = load ptr, ptr %3, align 8, !tbaa !4
  %46 = getelementptr inbounds nuw %struct.AVSContext, ptr %45, i32 0, i32 48
  store ptr %44, ptr %46, align 8, !tbaa !11
  %47 = load ptr, ptr %3, align 8, !tbaa !4
  %48 = getelementptr inbounds nuw %struct.AVSContext, ptr %47, i32 0, i32 13
  %49 = load i32, ptr %48, align 8, !tbaa !80
  %50 = sext i32 %49 to i64
  %51 = call noalias ptr @av_calloc(i64 noundef %50, i64 noundef 10)
  %52 = load ptr, ptr %3, align 8, !tbaa !4
  %53 = getelementptr inbounds nuw %struct.AVSContext, ptr %52, i32 0, i32 49
  store ptr %51, ptr %53, align 8, !tbaa !29
  %54 = load ptr, ptr %3, align 8, !tbaa !4
  %55 = getelementptr inbounds nuw %struct.AVSContext, ptr %54, i32 0, i32 13
  %56 = load i32, ptr %55, align 8, !tbaa !80
  %57 = sext i32 %56 to i64
  %58 = call noalias ptr @av_calloc(i64 noundef %57, i64 noundef 10)
  %59 = load ptr, ptr %3, align 8, !tbaa !4
  %60 = getelementptr inbounds nuw %struct.AVSContext, ptr %59, i32 0, i32 50
  store ptr %58, ptr %60, align 8, !tbaa !31
  %61 = load ptr, ptr %3, align 8, !tbaa !4
  %62 = getelementptr inbounds nuw %struct.AVSContext, ptr %61, i32 0, i32 13
  %63 = load i32, ptr %62, align 8, !tbaa !80
  %64 = load ptr, ptr %3, align 8, !tbaa !4
  %65 = getelementptr inbounds nuw %struct.AVSContext, ptr %64, i32 0, i32 14
  %66 = load i32, ptr %65, align 4, !tbaa !85
  %67 = mul nsw i32 %63, %66
  %68 = sext i32 %67 to i64
  %69 = call noalias ptr @av_calloc(i64 noundef %68, i64 noundef 32)
  %70 = load ptr, ptr %3, align 8, !tbaa !4
  %71 = getelementptr inbounds nuw %struct.AVSContext, ptr %70, i32 0, i32 37
  store ptr %69, ptr %71, align 8, !tbaa !87
  %72 = load ptr, ptr %3, align 8, !tbaa !4
  %73 = getelementptr inbounds nuw %struct.AVSContext, ptr %72, i32 0, i32 13
  %74 = load i32, ptr %73, align 8, !tbaa !80
  %75 = load ptr, ptr %3, align 8, !tbaa !4
  %76 = getelementptr inbounds nuw %struct.AVSContext, ptr %75, i32 0, i32 14
  %77 = load i32, ptr %76, align 4, !tbaa !85
  %78 = mul nsw i32 %74, %77
  %79 = sext i32 %78 to i64
  %80 = call noalias ptr @av_mallocz(i64 noundef %79)
  %81 = load ptr, ptr %3, align 8, !tbaa !4
  %82 = getelementptr inbounds nuw %struct.AVSContext, ptr %81, i32 0, i32 60
  store ptr %80, ptr %82, align 8, !tbaa !88
  %83 = call noalias ptr @av_mallocz(i64 noundef 128)
  %84 = load ptr, ptr %3, align 8, !tbaa !4
  %85 = getelementptr inbounds nuw %struct.AVSContext, ptr %84, i32 0, i32 66
  store ptr %83, ptr %85, align 8, !tbaa !89
  %86 = load ptr, ptr %3, align 8, !tbaa !4
  %87 = getelementptr inbounds nuw %struct.AVSContext, ptr %86, i32 0, i32 34
  %88 = load ptr, ptr %87, align 8, !tbaa !49
  %89 = icmp ne ptr %88, null
  br i1 %89, label %90, label %137

90:                                               ; preds = %1
  %91 = load ptr, ptr %3, align 8, !tbaa !4
  %92 = getelementptr inbounds nuw %struct.AVSContext, ptr %91, i32 0, i32 36
  %93 = getelementptr inbounds [2 x ptr], ptr %92, i64 0, i64 0
  %94 = load ptr, ptr %93, align 8, !tbaa !51
  %95 = icmp ne ptr %94, null
  br i1 %95, label %96, label %137

96:                                               ; preds = %90
  %97 = load ptr, ptr %3, align 8, !tbaa !4
  %98 = getelementptr inbounds nuw %struct.AVSContext, ptr %97, i32 0, i32 36
  %99 = getelementptr inbounds [2 x ptr], ptr %98, i64 0, i64 1
  %100 = load ptr, ptr %99, align 8, !tbaa !51
  %101 = icmp ne ptr %100, null
  br i1 %101, label %102, label %137

102:                                              ; preds = %96
  %103 = load ptr, ptr %3, align 8, !tbaa !4
  %104 = getelementptr inbounds nuw %struct.AVSContext, ptr %103, i32 0, i32 39
  %105 = load ptr, ptr %104, align 8, !tbaa !64
  %106 = icmp ne ptr %105, null
  br i1 %106, label %107, label %137

107:                                              ; preds = %102
  %108 = load ptr, ptr %3, align 8, !tbaa !4
  %109 = getelementptr inbounds nuw %struct.AVSContext, ptr %108, i32 0, i32 48
  %110 = load ptr, ptr %109, align 8, !tbaa !11
  %111 = icmp ne ptr %110, null
  br i1 %111, label %112, label %137

112:                                              ; preds = %107
  %113 = load ptr, ptr %3, align 8, !tbaa !4
  %114 = getelementptr inbounds nuw %struct.AVSContext, ptr %113, i32 0, i32 49
  %115 = load ptr, ptr %114, align 8, !tbaa !29
  %116 = icmp ne ptr %115, null
  br i1 %116, label %117, label %137

117:                                              ; preds = %112
  %118 = load ptr, ptr %3, align 8, !tbaa !4
  %119 = getelementptr inbounds nuw %struct.AVSContext, ptr %118, i32 0, i32 50
  %120 = load ptr, ptr %119, align 8, !tbaa !31
  %121 = icmp ne ptr %120, null
  br i1 %121, label %122, label %137

122:                                              ; preds = %117
  %123 = load ptr, ptr %3, align 8, !tbaa !4
  %124 = getelementptr inbounds nuw %struct.AVSContext, ptr %123, i32 0, i32 37
  %125 = load ptr, ptr %124, align 8, !tbaa !87
  %126 = icmp ne ptr %125, null
  br i1 %126, label %127, label %137

127:                                              ; preds = %122
  %128 = load ptr, ptr %3, align 8, !tbaa !4
  %129 = getelementptr inbounds nuw %struct.AVSContext, ptr %128, i32 0, i32 60
  %130 = load ptr, ptr %129, align 8, !tbaa !88
  %131 = icmp ne ptr %130, null
  br i1 %131, label %132, label %137

132:                                              ; preds = %127
  %133 = load ptr, ptr %3, align 8, !tbaa !4
  %134 = getelementptr inbounds nuw %struct.AVSContext, ptr %133, i32 0, i32 66
  %135 = load ptr, ptr %134, align 8, !tbaa !89
  %136 = icmp ne ptr %135, null
  br i1 %136, label %160, label %137

137:                                              ; preds = %132, %127, %122, %117, %112, %107, %102, %96, %90, %1
  %138 = load ptr, ptr %3, align 8, !tbaa !4
  %139 = getelementptr inbounds nuw %struct.AVSContext, ptr %138, i32 0, i32 34
  call void @av_freep(ptr noundef %139)
  %140 = load ptr, ptr %3, align 8, !tbaa !4
  %141 = getelementptr inbounds nuw %struct.AVSContext, ptr %140, i32 0, i32 36
  %142 = getelementptr inbounds [2 x ptr], ptr %141, i64 0, i64 0
  call void @av_freep(ptr noundef %142)
  %143 = load ptr, ptr %3, align 8, !tbaa !4
  %144 = getelementptr inbounds nuw %struct.AVSContext, ptr %143, i32 0, i32 36
  %145 = getelementptr inbounds [2 x ptr], ptr %144, i64 0, i64 1
  call void @av_freep(ptr noundef %145)
  %146 = load ptr, ptr %3, align 8, !tbaa !4
  %147 = getelementptr inbounds nuw %struct.AVSContext, ptr %146, i32 0, i32 39
  call void @av_freep(ptr noundef %147)
  %148 = load ptr, ptr %3, align 8, !tbaa !4
  %149 = getelementptr inbounds nuw %struct.AVSContext, ptr %148, i32 0, i32 48
  call void @av_freep(ptr noundef %149)
  %150 = load ptr, ptr %3, align 8, !tbaa !4
  %151 = getelementptr inbounds nuw %struct.AVSContext, ptr %150, i32 0, i32 49
  call void @av_freep(ptr noundef %151)
  %152 = load ptr, ptr %3, align 8, !tbaa !4
  %153 = getelementptr inbounds nuw %struct.AVSContext, ptr %152, i32 0, i32 50
  call void @av_freep(ptr noundef %153)
  %154 = load ptr, ptr %3, align 8, !tbaa !4
  %155 = getelementptr inbounds nuw %struct.AVSContext, ptr %154, i32 0, i32 37
  call void @av_freep(ptr noundef %155)
  %156 = load ptr, ptr %3, align 8, !tbaa !4
  %157 = getelementptr inbounds nuw %struct.AVSContext, ptr %156, i32 0, i32 60
  call void @av_freep(ptr noundef %157)
  %158 = load ptr, ptr %3, align 8, !tbaa !4
  %159 = getelementptr inbounds nuw %struct.AVSContext, ptr %158, i32 0, i32 66
  call void @av_freep(ptr noundef %159)
  store i32 -12, ptr %2, align 4
  br label %161

160:                                              ; preds = %132
  store i32 0, ptr %2, align 4
  br label %161

161:                                              ; preds = %160, %137
  %162 = load i32, ptr %2, align 4
  ret i32 %162
}