; Function Attrs: nounwind uwtable
define range(i32 -12, 1) i32 @ff_cavs_init_top_lines(ptr noundef initializes((888, 896), (1088, 1112), (1152, 1160), (1272, 1296), (1496, 1504), (1544, 1552)) %0) local_unnamed_addr #0 {
  %2 = getelementptr inbounds nuw i8, ptr %0, i64 784
  %3 = load i32, ptr %2, align 8, !tbaa !68
  %4 = sext i32 %3 to i64
  %5 = tail call noalias ptr @av_mallocz(i64 noundef %4) #14
  %6 = getelementptr inbounds nuw i8, ptr %0, i64 888
  store ptr %5, ptr %6, align 8, !tbaa !51
  %7 = load i32, ptr %2, align 8, !tbaa !68
  %8 = shl nsw i32 %7, 1
  %9 = or disjoint i32 %8, 1
  %10 = sext i32 %9 to i64
  %11 = tail call noalias ptr @av_calloc(i64 noundef %10, i64 noundef 8) #14
  %12 = getelementptr inbounds nuw i8, ptr %0, i64 1088
  store ptr %11, ptr %12, align 8, !tbaa !66
  %13 = load i32, ptr %2, align 8, !tbaa !68
  %14 = shl nsw i32 %13, 1
  %15 = or disjoint i32 %14, 1
  %16 = sext i32 %15 to i64
  %17 = tail call noalias ptr @av_calloc(i64 noundef %16, i64 noundef 8) #14
  %18 = getelementptr inbounds nuw i8, ptr %0, i64 1096
  store ptr %17, ptr %18, align 8, !tbaa !66
  %19 = load i32, ptr %2, align 8, !tbaa !68
  %20 = shl nsw i32 %19, 1
  %21 = sext i32 %20 to i64
  %22 = tail call noalias ptr @av_calloc(i64 noundef %21, i64 noundef 4) #14
  %23 = getelementptr inbounds nuw i8, ptr %0, i64 1152
  store ptr %22, ptr %23, align 8, !tbaa !57
  %24 = load i32, ptr %2, align 8, !tbaa !68
  %25 = add nsw i32 %24, 1
  %26 = sext i32 %25 to i64
  %27 = tail call noalias ptr @av_calloc(i64 noundef %26, i64 noundef 16) #14
  %28 = getelementptr inbounds nuw i8, ptr %0, i64 1272
  store ptr %27, ptr %28, align 8, !tbaa !4
  %29 = load i32, ptr %2, align 8, !tbaa !68
  %30 = sext i32 %29 to i64
  %31 = tail call noalias ptr @av_calloc(i64 noundef %30, i64 noundef 10) #14
  %32 = getelementptr inbounds nuw i8, ptr %0, i64 1280
  store ptr %31, ptr %32, align 8, !tbaa !26
  %33 = load i32, ptr %2, align 8, !tbaa !68
  %34 = sext i32 %33 to i64
  %35 = tail call noalias ptr @av_calloc(i64 noundef %34, i64 noundef 10) #14
  %36 = getelementptr inbounds nuw i8, ptr %0, i64 1288
  store ptr %35, ptr %36, align 8, !tbaa !28
  %37 = load i32, ptr %2, align 8, !tbaa !68
  %38 = getelementptr inbounds nuw i8, ptr %0, i64 788
  %39 = load i32, ptr %38, align 4, !tbaa !73
  %40 = mul nsw i32 %39, %37
  %41 = sext i32 %40 to i64
  %42 = tail call noalias ptr @av_calloc(i64 noundef %41, i64 noundef 32) #14
  %43 = getelementptr inbounds nuw i8, ptr %0, i64 1104
  store ptr %42, ptr %43, align 8, !tbaa !75
  %44 = load i32, ptr %2, align 8, !tbaa !68
  %45 = load i32, ptr %38, align 4, !tbaa !73
  %46 = mul nsw i32 %45, %44
  %47 = sext i32 %46 to i64
  %48 = tail call noalias ptr @av_mallocz(i64 noundef %47) #14
  %49 = getelementptr inbounds nuw i8, ptr %0, i64 1496
  store ptr %48, ptr %49, align 8, !tbaa !76
  %50 = tail call noalias ptr @av_mallocz(i64 noundef 128) #14
  %51 = getelementptr inbounds nuw i8, ptr %0, i64 1544
  store ptr %50, ptr %51, align 8, !tbaa !77
  %52 = load ptr, ptr %6, align 8, !tbaa !51
  %.not = icmp eq ptr %52, null
  br i1 %.not, label %69, label %53

53:                                               ; preds = %1
  %54 = load ptr, ptr %12, align 8, !tbaa !66
  %.not41 = icmp eq ptr %54, null
  br i1 %.not41, label %69, label %55

55:                                               ; preds = %53
  %56 = load ptr, ptr %18, align 8, !tbaa !66
  %.not42 = icmp eq ptr %56, null
  br i1 %.not42, label %69, label %57

57:                                               ; preds = %55
  %58 = load ptr, ptr %23, align 8, !tbaa !57
  %.not43 = icmp eq ptr %58, null
  br i1 %.not43, label %69, label %59

59:                                               ; preds = %57
  %60 = load ptr, ptr %28, align 8, !tbaa !4
  %.not44 = icmp eq ptr %60, null
  br i1 %.not44, label %69, label %61

61:                                               ; preds = %59
  %62 = load ptr, ptr %32, align 8, !tbaa !26
  %.not45 = icmp eq ptr %62, null
  br i1 %.not45, label %69, label %63

63:                                               ; preds = %61
  %64 = load ptr, ptr %36, align 8, !tbaa !28
  %.not46 = icmp eq ptr %64, null
  br i1 %.not46, label %69, label %65

65:                                               ; preds = %63
  %66 = load ptr, ptr %43, align 8, !tbaa !75
  %.not47 = icmp eq ptr %66, null
  br i1 %.not47, label %69, label %67

67:                                               ; preds = %65
  %68 = load ptr, ptr %49, align 8, !tbaa !76
  %.not48 = icmp eq ptr %68, null
  %.not49 = icmp eq ptr %50, null
  %or.cond = select i1 %.not48, i1 true, i1 %.not49
  br i1 %or.cond, label %69, label %70

69:                                               ; preds = %67, %65, %63, %61, %59, %57, %55, %53, %1
  tail call void @av_freep(ptr noundef nonnull %6) #14
  tail call void @av_freep(ptr noundef nonnull %12) #14
  tail call void @av_freep(ptr noundef nonnull %18) #14
  tail call void @av_freep(ptr noundef nonnull %23) #14
  tail call void @av_freep(ptr noundef nonnull %28) #14
  tail call void @av_freep(ptr noundef nonnull %32) #14
  tail call void @av_freep(ptr noundef nonnull %36) #14
  tail call void @av_freep(ptr noundef nonnull %43) #14
  tail call void @av_freep(ptr noundef nonnull %49) #14
  tail call void @av_freep(ptr noundef nonnull %51) #14
  br label %70

70:                                               ; preds = %67, %69
  %.0 = phi i32 [ -12, %69 ], [ 0, %67 ]
  ret i32 %.0
}